target datalayout = "e-m:e-p270:32:32-p271:32:32-p272:64:64-i64:64-i128:128-f80:128-n8:16:32:64-S128"
target triple = "x86_64-pc-linux-gnu"

%struct._mcaststream_tapinfo = type { ptr, ptr, ptr, ptr, i32, ptr, i8 }

; Function Attrs: null_pointer_is_valid sspstrong uwtable
define hidden void @remove_tap_listener_mcast_stream(ptr noundef %0) #0 {
  %2 = alloca ptr, align 8
  store ptr %0, ptr %2, align 8
  %3 = load ptr, ptr %2, align 8
  %4 = icmp ne ptr %3, null
  br i1 %4, label %5, label %14

5:                                                ; preds = %1
  %6 = load ptr, ptr %2, align 8
  %7 = getelementptr inbounds nuw %struct._mcaststream_tapinfo, ptr %6, i32 0, i32 6
  %8 = load i8, ptr %7, align 8, !range !10, !noundef !11
  %9 = trunc i8 %8 to i1
  br i1 %9, label %10, label %14

10:                                               ; preds = %5
  %11 = load ptr, ptr %2, align 8
  call void @remove_tap_listener(ptr noundef %11)
  %12 = load ptr, ptr %2, align 8
  %13 = getelementptr inbounds nuw %struct._mcaststream_tapinfo, ptr %12, i32 0, i32 6
  store i8 0, ptr %13, align 8
  br label %14

14:                                               ; preds = %10, %5, %1
  ret void
}