; Function Attrs: null_pointer_is_valid sspstrong uwtable
define hidden void @remove_tap_listener_mcast_stream(ptr noundef %0) local_unnamed_addr #0 {
  %.not = icmp eq ptr %0, null
  br i1 %.not, label %7, label %2

2:                                                ; preds = %1
  %3 = getelementptr inbounds nuw i8, ptr %0, i64 48
  %4 = load i8, ptr %3, align 8, !range !10, !noundef !11
  %5 = trunc nuw i8 %4 to i1
  br i1 %5, label %6, label %7

6:                                                ; preds = %2
  tail call void @remove_tap_listener(ptr noundef nonnull %0)
  store i8 0, ptr %3, align 8
  br label %7

7:                                                ; preds = %6, %2, %1
  ret void
}